; Function Attrs: null_pointer_is_valid sspstrong uwtable
define void @raknet_conversation_set_dissector(ptr noundef %0, ptr noundef %1) local_unnamed_addr #0 {
  %3 = tail call ptr @find_or_create_conversation(ptr noundef %0)
  %4 = load i32, ptr @proto_raknet, align 4
  %5 = tail call ptr @conversation_get_proto_data(ptr noundef %3, i32 noundef %4)
  %6 = icmp eq ptr %5, null
  br i1 %6, label %7, label %raknet_get_session_state.exit

7:                                                ; preds = %2
  %8 = tail call ptr @wmem_file_scope()
  %9 = tail call noalias dereferenceable_or_null(16) ptr @wmem_alloc(ptr noundef %8, i64 noundef 16) #4
  store i8 0, ptr %9, align 8
  %10 = getelementptr inbounds nuw i8, ptr %9, i64 8
  store ptr null, ptr %10, align 8
  %11 = load i32, ptr @proto_raknet, align 4
  tail call void @conversation_add_proto_data(ptr noundef %3, i32 noundef %11, ptr noundef %9)
  br label %raknet_get_session_state.exit

raknet_get_session_state.exit:                    ; preds = %2, %7
  %.0.i = phi ptr [ %9, %7 ], [ %5, %2 ]
  %12 = getelementptr inbounds nuw i8, ptr %.0.i, i64 8
  store ptr %1, ptr %12, align 8
  ret void
}